target datalayout = "e-m:e-p270:32:32-p271:32:32-p272:64:64-i64:64-i128:128-f80:128-n8:16:32:64-S128"
target triple = "x86_64-unknown-linux-gnu"

%struct.iovec = type { ptr, i64 }
%struct.IOVDiscardUndo = type { ptr, %struct.iovec }

; Function Attrs: nounwind sspstrong uwtable
define dso_local void @iov_discard_undo(ptr noundef %undo) #0 {
entry:
  %undo.addr = alloca ptr, align 8
  store ptr %undo, ptr %undo.addr, align 8
  %0 = load ptr, ptr %undo.addr, align 8
  %modified_iov = getelementptr inbounds %struct.IOVDiscardUndo, ptr %0, i32 0, i32 0
  %1 = load ptr, ptr %modified_iov, align 8
  %tobool = icmp ne ptr %1, null
  br i1 %tobool, label %if.then, label %if.end

if.then:                                          ; preds = %entry
  %2 = load ptr, ptr %undo.addr, align 8
  %modified_iov1 = getelementptr inbounds %struct.IOVDiscardUndo, ptr %2, i32 0, i32 0
  %3 = load ptr, ptr %modified_iov1, align 8
  %4 = load ptr, ptr %undo.addr, align 8
  %orig = getelementptr inbounds %struct.IOVDiscardUndo, ptr %4, i32 0, i32 1
  call void @llvm.memcpy.p0.p0.i64(ptr align 8 %3, ptr align 8 %orig, i64 16, i1 false)
  br label %if.end

if.end:                                           ; preds = %if.then, %entry
  ret void
}