; Function Attrs: mustprogress nofree norecurse nosync nounwind sspstrong willreturn memory(readwrite, inaccessiblemem: none) uwtable
define dso_local void @iov_discard_undo(ptr noundef readonly captures(none) %undo) local_unnamed_addr #13 {
entry:
  %0 = load ptr, ptr %undo, align 8
  %tobool.not = icmp eq ptr %0, null
  br i1 %tobool.not, label %if.end, label %if.then

if.then:                                          ; preds = %entry
  %orig = getelementptr inbounds nuw i8, ptr %undo, i64 8
  tail call void @llvm.memcpy.p0.p0.i64(ptr noundef nonnull align 8 dereferenceable(16) %0, ptr noundef nonnull align 8 dereferenceable(16) %orig, i64 16, i1 false)
  br label %if.end

if.end:                                           ; preds = %if.then, %entry
  ret void
}